
led.elf:     file format elf32-littleriscv


Disassembly of section .text:

10000000 <_start>:
10000000:	10010137          	lui	x2,0x10010
10000004:	ff010113          	addi	x2,x2,-16 # 1000fff0 <strlen+0xf268>
10000008:	0e4000ef          	jal	x1,100000ec <main>

1000000c <tb_putc>:
1000000c:	fe010113          	addi	x2,x2,-32
10000010:	00812e23          	sw	x8,28(x2)
10000014:	02010413          	addi	x8,x2,32
10000018:	00050793          	mv	x15,x10
1000001c:	fef407a3          	sb	x15,-17(x8)
10000020:	8000f7b7          	lui	x15,0x8000f
10000024:	fef44703          	lbu	x14,-17(x8)
10000028:	00e7a023          	sw	x14,0(x15) # 8000f000 <strlen+0x7000e278>
1000002c:	00000013          	nop
10000030:	01c12403          	lw	x8,28(x2)
10000034:	02010113          	addi	x2,x2,32
10000038:	00008067          	ret

1000003c <tb_puts>:
1000003c:	fe010113          	addi	x2,x2,-32
10000040:	00112e23          	sw	x1,28(x2)
10000044:	00812c23          	sw	x8,24(x2)
10000048:	02010413          	addi	x8,x2,32
1000004c:	fea42623          	sw	x10,-20(x8)
10000050:	01c0006f          	j	1000006c <tb_puts+0x30>
10000054:	fec42783          	lw	x15,-20(x8)
10000058:	00178713          	addi	x14,x15,1
1000005c:	fee42623          	sw	x14,-20(x8)
10000060:	0007c783          	lbu	x15,0(x15)
10000064:	00078513          	mv	x10,x15
10000068:	fa5ff0ef          	jal	x1,1000000c <tb_putc>
1000006c:	fec42783          	lw	x15,-20(x8)
10000070:	0007c783          	lbu	x15,0(x15)
10000074:	fe0790e3          	bnez	x15,10000054 <tb_puts+0x18>
10000078:	00000013          	nop
1000007c:	01c12083          	lw	x1,28(x2)
10000080:	01812403          	lw	x8,24(x2)
10000084:	02010113          	addi	x2,x2,32
10000088:	00008067          	ret

1000008c <tb_exit>:
1000008c:	fe010113          	addi	x2,x2,-32
10000090:	00812e23          	sw	x8,28(x2)
10000094:	02010413          	addi	x8,x2,32
10000098:	fea42623          	sw	x10,-20(x8)
1000009c:	8000f7b7          	lui	x15,0x8000f
100000a0:	fec42703          	lw	x14,-20(x8)
100000a4:	00e7a423          	sw	x14,8(x15) # 8000f008 <strlen+0x7000e280>
100000a8:	00000013          	nop
100000ac:	01c12403          	lw	x8,28(x2)
100000b0:	02010113          	addi	x2,x2,32
100000b4:	00008067          	ret

100000b8 <delay>:
100000b8:	fe010113          	addi	x2,x2,-32
100000bc:	00812e23          	sw	x8,28(x2)
100000c0:	02010413          	addi	x8,x2,32
100000c4:	fea42623          	sw	x10,-20(x8)
100000c8:	00000013          	nop
100000cc:	fec42783          	lw	x15,-20(x8)
100000d0:	fff78713          	addi	x14,x15,-1
100000d4:	fee42623          	sw	x14,-20(x8)
100000d8:	fe079ae3          	bnez	x15,100000cc <delay+0x14>
100000dc:	00000013          	nop
100000e0:	01c12403          	lw	x8,28(x2)
100000e4:	02010113          	addi	x2,x2,32
100000e8:	00008067          	ret

100000ec <main>:
100000ec:	ff010113          	addi	x2,x2,-16
100000f0:	00112623          	sw	x1,12(x2)
100000f4:	00812423          	sw	x8,8(x2)
100000f8:	01010413          	addi	x8,x2,16
100000fc:	00001517          	auipc	x10,0x1
10000100:	cd850513          	addi	x10,x10,-808 # 10000dd4 <strlen+0x4c>
10000104:	f39ff0ef          	jal	x1,1000003c <tb_puts>
10000108:	800027b7          	lui	x15,0x80002
1000010c:	00878793          	addi	x15,x15,8 # 80002008 <strlen+0x70001280>
10000110:	2aa00713          	li	x14,682
10000114:	00e7a023          	sw	x14,0(x15)
10000118:	0ff00513          	li	x10,255
1000011c:	f9dff0ef          	jal	x1,100000b8 <delay>
10000120:	800027b7          	lui	x15,0x80002
10000124:	00878793          	addi	x15,x15,8 # 80002008 <strlen+0x70001280>
10000128:	15500713          	li	x14,341
1000012c:	00e7a023          	sw	x14,0(x15)
10000130:	0ff00513          	li	x10,255
10000134:	f85ff0ef          	jal	x1,100000b8 <delay>
10000138:	800027b7          	lui	x15,0x80002
1000013c:	00878793          	addi	x15,x15,8 # 80002008 <strlen+0x70001280>
10000140:	2aa00713          	li	x14,682
10000144:	00e7a023          	sw	x14,0(x15)
10000148:	0ff00513          	li	x10,255
1000014c:	f6dff0ef          	jal	x1,100000b8 <delay>
10000150:	800027b7          	lui	x15,0x80002
10000154:	00878793          	addi	x15,x15,8 # 80002008 <strlen+0x70001280>
10000158:	15500713          	li	x14,341
1000015c:	00e7a023          	sw	x14,0(x15)
10000160:	0ff00513          	li	x10,255
10000164:	f55ff0ef          	jal	x1,100000b8 <delay>
10000168:	07b00513          	li	x10,123
1000016c:	f21ff0ef          	jal	x1,1000008c <tb_exit>
10000170:	00000793          	li	x15,0
10000174:	00078513          	mv	x10,x15
10000178:	00c12083          	lw	x1,12(x2)
1000017c:	00812403          	lw	x8,8(x2)
10000180:	01010113          	addi	x2,x2,16
10000184:	00008067          	ret

10000188 <ascii_dec_to_uint8>:
10000188:	fd010113          	addi	x2,x2,-48
1000018c:	02812623          	sw	x8,44(x2)
10000190:	03010413          	addi	x8,x2,48
10000194:	fca42e23          	sw	x10,-36(x8)
10000198:	fe0407a3          	sb	x0,-17(x8)
1000019c:	fe042423          	sw	x0,-24(x8)
100001a0:	0800006f          	j	10000220 <ascii_dec_to_uint8+0x98>
100001a4:	fdc42703          	lw	x14,-36(x8)
100001a8:	fe842783          	lw	x15,-24(x8)
100001ac:	00f707b3          	add	x15,x14,x15
100001b0:	0007c703          	lbu	x14,0(x15)
100001b4:	02f00793          	li	x15,47
100001b8:	04e7fe63          	bgeu	x15,x14,10000214 <ascii_dec_to_uint8+0x8c>
100001bc:	fdc42703          	lw	x14,-36(x8)
100001c0:	fe842783          	lw	x15,-24(x8)
100001c4:	00f707b3          	add	x15,x14,x15
100001c8:	0007c703          	lbu	x14,0(x15)
100001cc:	03900793          	li	x15,57
100001d0:	04e7e263          	bltu	x15,x14,10000214 <ascii_dec_to_uint8+0x8c>
100001d4:	fef44783          	lbu	x15,-17(x8)
100001d8:	00379793          	slli	x15,x15,0x3
100001dc:	0ff7f713          	andi	x14,x15,255
100001e0:	fef44783          	lbu	x15,-17(x8)
100001e4:	00179793          	slli	x15,x15,0x1
100001e8:	0ff7f793          	andi	x15,x15,255
100001ec:	00f707b3          	add	x15,x14,x15
100001f0:	0ff7f713          	andi	x14,x15,255
100001f4:	fdc42683          	lw	x13,-36(x8)
100001f8:	fe842783          	lw	x15,-24(x8)
100001fc:	00f687b3          	add	x15,x13,x15
10000200:	0007c783          	lbu	x15,0(x15)
10000204:	00f707b3          	add	x15,x14,x15
10000208:	0ff7f793          	andi	x15,x15,255
1000020c:	fd078793          	addi	x15,x15,-48
10000210:	fef407a3          	sb	x15,-17(x8)
10000214:	fe842783          	lw	x15,-24(x8)
10000218:	00178793          	addi	x15,x15,1
1000021c:	fef42423          	sw	x15,-24(x8)
10000220:	fe842703          	lw	x14,-24(x8)
10000224:	00200793          	li	x15,2
10000228:	00e7ec63          	bltu	x15,x14,10000240 <ascii_dec_to_uint8+0xb8>
1000022c:	fdc42703          	lw	x14,-36(x8)
10000230:	fe842783          	lw	x15,-24(x8)
10000234:	00f707b3          	add	x15,x14,x15
10000238:	0007c783          	lbu	x15,0(x15)
1000023c:	f60794e3          	bnez	x15,100001a4 <ascii_dec_to_uint8+0x1c>
10000240:	fef44783          	lbu	x15,-17(x8)
10000244:	00078513          	mv	x10,x15
10000248:	02c12403          	lw	x8,44(x2)
1000024c:	03010113          	addi	x2,x2,48
10000250:	00008067          	ret

10000254 <ascii_dec_to_uint16>:
10000254:	fd010113          	addi	x2,x2,-48
10000258:	02812623          	sw	x8,44(x2)
1000025c:	03010413          	addi	x8,x2,48
10000260:	fca42e23          	sw	x10,-36(x8)
10000264:	fe041723          	sh	x0,-18(x8)
10000268:	fe042423          	sw	x0,-24(x8)
1000026c:	0980006f          	j	10000304 <ascii_dec_to_uint16+0xb0>
10000270:	fdc42703          	lw	x14,-36(x8)
10000274:	fe842783          	lw	x15,-24(x8)
10000278:	00f707b3          	add	x15,x14,x15
1000027c:	0007c703          	lbu	x14,0(x15)
10000280:	02f00793          	li	x15,47
10000284:	06e7fa63          	bgeu	x15,x14,100002f8 <ascii_dec_to_uint16+0xa4>
10000288:	fdc42703          	lw	x14,-36(x8)
1000028c:	fe842783          	lw	x15,-24(x8)
10000290:	00f707b3          	add	x15,x14,x15
10000294:	0007c703          	lbu	x14,0(x15)
10000298:	03900793          	li	x15,57
1000029c:	04e7ee63          	bltu	x15,x14,100002f8 <ascii_dec_to_uint16+0xa4>
100002a0:	fee45783          	lhu	x15,-18(x8)
100002a4:	00379793          	slli	x15,x15,0x3
100002a8:	01079713          	slli	x14,x15,0x10
100002ac:	01075713          	srli	x14,x14,0x10
100002b0:	fee45783          	lhu	x15,-18(x8)
100002b4:	00179793          	slli	x15,x15,0x1
100002b8:	01079793          	slli	x15,x15,0x10
100002bc:	0107d793          	srli	x15,x15,0x10
100002c0:	00f707b3          	add	x15,x14,x15
100002c4:	01079713          	slli	x14,x15,0x10
100002c8:	01075713          	srli	x14,x14,0x10
100002cc:	fdc42683          	lw	x13,-36(x8)
100002d0:	fe842783          	lw	x15,-24(x8)
100002d4:	00f687b3          	add	x15,x13,x15
100002d8:	0007c783          	lbu	x15,0(x15)
100002dc:	01079793          	slli	x15,x15,0x10
100002e0:	0107d793          	srli	x15,x15,0x10
100002e4:	00f707b3          	add	x15,x14,x15
100002e8:	01079793          	slli	x15,x15,0x10
100002ec:	0107d793          	srli	x15,x15,0x10
100002f0:	fd078793          	addi	x15,x15,-48
100002f4:	fef41723          	sh	x15,-18(x8)
100002f8:	fe842783          	lw	x15,-24(x8)
100002fc:	00178793          	addi	x15,x15,1
10000300:	fef42423          	sw	x15,-24(x8)
10000304:	fe842703          	lw	x14,-24(x8)
10000308:	00400793          	li	x15,4
1000030c:	00e7ec63          	bltu	x15,x14,10000324 <ascii_dec_to_uint16+0xd0>
10000310:	fdc42703          	lw	x14,-36(x8)
10000314:	fe842783          	lw	x15,-24(x8)
10000318:	00f707b3          	add	x15,x14,x15
1000031c:	0007c783          	lbu	x15,0(x15)
10000320:	f40798e3          	bnez	x15,10000270 <ascii_dec_to_uint16+0x1c>
10000324:	fee45783          	lhu	x15,-18(x8)
10000328:	00078513          	mv	x10,x15
1000032c:	02c12403          	lw	x8,44(x2)
10000330:	03010113          	addi	x2,x2,48
10000334:	00008067          	ret

10000338 <ascii_dec_to_uint32>:
10000338:	fd010113          	addi	x2,x2,-48
1000033c:	02812623          	sw	x8,44(x2)
10000340:	03010413          	addi	x8,x2,48
10000344:	fca42e23          	sw	x10,-36(x8)
10000348:	fe042623          	sw	x0,-20(x8)
1000034c:	fe042423          	sw	x0,-24(x8)
10000350:	0700006f          	j	100003c0 <ascii_dec_to_uint32+0x88>
10000354:	fdc42703          	lw	x14,-36(x8)
10000358:	fe842783          	lw	x15,-24(x8)
1000035c:	00f707b3          	add	x15,x14,x15
10000360:	0007c703          	lbu	x14,0(x15)
10000364:	02f00793          	li	x15,47
10000368:	04e7f663          	bgeu	x15,x14,100003b4 <ascii_dec_to_uint32+0x7c>
1000036c:	fdc42703          	lw	x14,-36(x8)
10000370:	fe842783          	lw	x15,-24(x8)
10000374:	00f707b3          	add	x15,x14,x15
10000378:	0007c703          	lbu	x14,0(x15)
1000037c:	03900793          	li	x15,57
10000380:	02e7ea63          	bltu	x15,x14,100003b4 <ascii_dec_to_uint32+0x7c>
10000384:	fec42783          	lw	x15,-20(x8)
10000388:	00379713          	slli	x14,x15,0x3
1000038c:	fec42783          	lw	x15,-20(x8)
10000390:	00179793          	slli	x15,x15,0x1
10000394:	00f707b3          	add	x15,x14,x15
10000398:	fdc42683          	lw	x13,-36(x8)
1000039c:	fe842703          	lw	x14,-24(x8)
100003a0:	00e68733          	add	x14,x13,x14
100003a4:	00074703          	lbu	x14,0(x14)
100003a8:	00e787b3          	add	x15,x15,x14
100003ac:	fd078793          	addi	x15,x15,-48
100003b0:	fef42623          	sw	x15,-20(x8)
100003b4:	fe842783          	lw	x15,-24(x8)
100003b8:	00178793          	addi	x15,x15,1
100003bc:	fef42423          	sw	x15,-24(x8)
100003c0:	fe842703          	lw	x14,-24(x8)
100003c4:	00800793          	li	x15,8
100003c8:	00e7ec63          	bltu	x15,x14,100003e0 <ascii_dec_to_uint32+0xa8>
100003cc:	fdc42703          	lw	x14,-36(x8)
100003d0:	fe842783          	lw	x15,-24(x8)
100003d4:	00f707b3          	add	x15,x14,x15
100003d8:	0007c783          	lbu	x15,0(x15)
100003dc:	f6079ce3          	bnez	x15,10000354 <ascii_dec_to_uint32+0x1c>
100003e0:	fec42783          	lw	x15,-20(x8)
100003e4:	00078513          	mv	x10,x15
100003e8:	02c12403          	lw	x8,44(x2)
100003ec:	03010113          	addi	x2,x2,48
100003f0:	00008067          	ret

100003f4 <ascii_hex_to_uint8>:
100003f4:	fd010113          	addi	x2,x2,-48
100003f8:	02812623          	sw	x8,44(x2)
100003fc:	03010413          	addi	x8,x2,48
10000400:	fca42e23          	sw	x10,-36(x8)
10000404:	fe0407a3          	sb	x0,-17(x8)
10000408:	fe040723          	sb	x0,-18(x8)
1000040c:	1240006f          	j	10000530 <ascii_hex_to_uint8+0x13c>
10000410:	fee44783          	lbu	x15,-18(x8)
10000414:	fdc42703          	lw	x14,-36(x8)
10000418:	00f707b3          	add	x15,x14,x15
1000041c:	0007c703          	lbu	x14,0(x15)
10000420:	02f00793          	li	x15,47
10000424:	04e7f463          	bgeu	x15,x14,1000046c <ascii_hex_to_uint8+0x78>
10000428:	fee44783          	lbu	x15,-18(x8)
1000042c:	fdc42703          	lw	x14,-36(x8)
10000430:	00f707b3          	add	x15,x14,x15
10000434:	0007c703          	lbu	x14,0(x15)
10000438:	03900793          	li	x15,57
1000043c:	02e7e863          	bltu	x15,x14,1000046c <ascii_hex_to_uint8+0x78>
10000440:	fef44783          	lbu	x15,-17(x8)
10000444:	00479793          	slli	x15,x15,0x4
10000448:	0ff7f713          	andi	x14,x15,255
1000044c:	fee44783          	lbu	x15,-18(x8)
10000450:	fdc42683          	lw	x13,-36(x8)
10000454:	00f687b3          	add	x15,x13,x15
10000458:	0007c783          	lbu	x15,0(x15)
1000045c:	00f707b3          	add	x15,x14,x15
10000460:	0ff7f793          	andi	x15,x15,255
10000464:	fd078793          	addi	x15,x15,-48
10000468:	fef407a3          	sb	x15,-17(x8)
1000046c:	fee44783          	lbu	x15,-18(x8)
10000470:	fdc42703          	lw	x14,-36(x8)
10000474:	00f707b3          	add	x15,x14,x15
10000478:	0007c703          	lbu	x14,0(x15)
1000047c:	06000793          	li	x15,96
10000480:	04e7f463          	bgeu	x15,x14,100004c8 <ascii_hex_to_uint8+0xd4>
10000484:	fee44783          	lbu	x15,-18(x8)
10000488:	fdc42703          	lw	x14,-36(x8)
1000048c:	00f707b3          	add	x15,x14,x15
10000490:	0007c703          	lbu	x14,0(x15)
10000494:	06600793          	li	x15,102
10000498:	02e7e863          	bltu	x15,x14,100004c8 <ascii_hex_to_uint8+0xd4>
1000049c:	fef44783          	lbu	x15,-17(x8)
100004a0:	00479793          	slli	x15,x15,0x4
100004a4:	0ff7f713          	andi	x14,x15,255
100004a8:	fee44783          	lbu	x15,-18(x8)
100004ac:	fdc42683          	lw	x13,-36(x8)
100004b0:	00f687b3          	add	x15,x13,x15
100004b4:	0007c783          	lbu	x15,0(x15)
100004b8:	00f707b3          	add	x15,x14,x15
100004bc:	0ff7f793          	andi	x15,x15,255
100004c0:	fa978793          	addi	x15,x15,-87
100004c4:	fef407a3          	sb	x15,-17(x8)
100004c8:	fee44783          	lbu	x15,-18(x8)
100004cc:	fdc42703          	lw	x14,-36(x8)
100004d0:	00f707b3          	add	x15,x14,x15
100004d4:	0007c703          	lbu	x14,0(x15)
100004d8:	04000793          	li	x15,64
100004dc:	04e7f463          	bgeu	x15,x14,10000524 <ascii_hex_to_uint8+0x130>
100004e0:	fee44783          	lbu	x15,-18(x8)
100004e4:	fdc42703          	lw	x14,-36(x8)
100004e8:	00f707b3          	add	x15,x14,x15
100004ec:	0007c703          	lbu	x14,0(x15)
100004f0:	04600793          	li	x15,70
100004f4:	02e7e863          	bltu	x15,x14,10000524 <ascii_hex_to_uint8+0x130>
100004f8:	fef44783          	lbu	x15,-17(x8)
100004fc:	00479793          	slli	x15,x15,0x4
10000500:	0ff7f713          	andi	x14,x15,255
10000504:	fee44783          	lbu	x15,-18(x8)
10000508:	fdc42683          	lw	x13,-36(x8)
1000050c:	00f687b3          	add	x15,x13,x15
10000510:	0007c783          	lbu	x15,0(x15)
10000514:	00f707b3          	add	x15,x14,x15
10000518:	0ff7f793          	andi	x15,x15,255
1000051c:	fc978793          	addi	x15,x15,-55
10000520:	fef407a3          	sb	x15,-17(x8)
10000524:	fee44783          	lbu	x15,-18(x8)
10000528:	00178793          	addi	x15,x15,1
1000052c:	fef40723          	sb	x15,-18(x8)
10000530:	fee44703          	lbu	x14,-18(x8)
10000534:	00100793          	li	x15,1
10000538:	00e7ec63          	bltu	x15,x14,10000550 <ascii_hex_to_uint8+0x15c>
1000053c:	fee44783          	lbu	x15,-18(x8)
10000540:	fdc42703          	lw	x14,-36(x8)
10000544:	00f707b3          	add	x15,x14,x15
10000548:	0007c783          	lbu	x15,0(x15)
1000054c:	ec0792e3          	bnez	x15,10000410 <ascii_hex_to_uint8+0x1c>
10000550:	fef44783          	lbu	x15,-17(x8)
10000554:	00078513          	mv	x10,x15
10000558:	02c12403          	lw	x8,44(x2)
1000055c:	03010113          	addi	x2,x2,48
10000560:	00008067          	ret

10000564 <ascii_hex_to_uint16>:
10000564:	fd010113          	addi	x2,x2,-48
10000568:	02812623          	sw	x8,44(x2)
1000056c:	03010413          	addi	x8,x2,48
10000570:	fca42e23          	sw	x10,-36(x8)
10000574:	fe041723          	sh	x0,-18(x8)
10000578:	fe041623          	sh	x0,-20(x8)
1000057c:	1540006f          	j	100006d0 <ascii_hex_to_uint16+0x16c>
10000580:	fec45783          	lhu	x15,-20(x8)
10000584:	fdc42703          	lw	x14,-36(x8)
10000588:	00f707b3          	add	x15,x14,x15
1000058c:	0007c703          	lbu	x14,0(x15)
10000590:	02f00793          	li	x15,47
10000594:	04e7fc63          	bgeu	x15,x14,100005ec <ascii_hex_to_uint16+0x88>
10000598:	fec45783          	lhu	x15,-20(x8)
1000059c:	fdc42703          	lw	x14,-36(x8)
100005a0:	00f707b3          	add	x15,x14,x15
100005a4:	0007c703          	lbu	x14,0(x15)
100005a8:	03900793          	li	x15,57
100005ac:	04e7e063          	bltu	x15,x14,100005ec <ascii_hex_to_uint16+0x88>
100005b0:	fee45783          	lhu	x15,-18(x8)
100005b4:	00479793          	slli	x15,x15,0x4
100005b8:	01079713          	slli	x14,x15,0x10
100005bc:	01075713          	srli	x14,x14,0x10
100005c0:	fec45783          	lhu	x15,-20(x8)
100005c4:	fdc42683          	lw	x13,-36(x8)
100005c8:	00f687b3          	add	x15,x13,x15
100005cc:	0007c783          	lbu	x15,0(x15)
100005d0:	01079793          	slli	x15,x15,0x10
100005d4:	0107d793          	srli	x15,x15,0x10
100005d8:	00f707b3          	add	x15,x14,x15
100005dc:	01079793          	slli	x15,x15,0x10
100005e0:	0107d793          	srli	x15,x15,0x10
100005e4:	fd078793          	addi	x15,x15,-48
100005e8:	fef41723          	sh	x15,-18(x8)
100005ec:	fec45783          	lhu	x15,-20(x8)
100005f0:	fdc42703          	lw	x14,-36(x8)
100005f4:	00f707b3          	add	x15,x14,x15
100005f8:	0007c703          	lbu	x14,0(x15)
100005fc:	06000793          	li	x15,96
10000600:	04e7fc63          	bgeu	x15,x14,10000658 <ascii_hex_to_uint16+0xf4>
10000604:	fec45783          	lhu	x15,-20(x8)
10000608:	fdc42703          	lw	x14,-36(x8)
1000060c:	00f707b3          	add	x15,x14,x15
10000610:	0007c703          	lbu	x14,0(x15)
10000614:	06600793          	li	x15,102
10000618:	04e7e063          	bltu	x15,x14,10000658 <ascii_hex_to_uint16+0xf4>
1000061c:	fee45783          	lhu	x15,-18(x8)
10000620:	00479793          	slli	x15,x15,0x4
10000624:	01079713          	slli	x14,x15,0x10
10000628:	01075713          	srli	x14,x14,0x10
1000062c:	fec45783          	lhu	x15,-20(x8)
10000630:	fdc42683          	lw	x13,-36(x8)
10000634:	00f687b3          	add	x15,x13,x15
10000638:	0007c783          	lbu	x15,0(x15)
1000063c:	01079793          	slli	x15,x15,0x10
10000640:	0107d793          	srli	x15,x15,0x10
10000644:	00f707b3          	add	x15,x14,x15
10000648:	01079793          	slli	x15,x15,0x10
1000064c:	0107d793          	srli	x15,x15,0x10
10000650:	fa978793          	addi	x15,x15,-87
10000654:	fef41723          	sh	x15,-18(x8)
10000658:	fec45783          	lhu	x15,-20(x8)
1000065c:	fdc42703          	lw	x14,-36(x8)
10000660:	00f707b3          	add	x15,x14,x15
10000664:	0007c703          	lbu	x14,0(x15)
10000668:	04000793          	li	x15,64
1000066c:	04e7fc63          	bgeu	x15,x14,100006c4 <ascii_hex_to_uint16+0x160>
10000670:	fec45783          	lhu	x15,-20(x8)
10000674:	fdc42703          	lw	x14,-36(x8)
10000678:	00f707b3          	add	x15,x14,x15
1000067c:	0007c703          	lbu	x14,0(x15)
10000680:	04600793          	li	x15,70
10000684:	04e7e063          	bltu	x15,x14,100006c4 <ascii_hex_to_uint16+0x160>
10000688:	fee45783          	lhu	x15,-18(x8)
1000068c:	00479793          	slli	x15,x15,0x4
10000690:	01079713          	slli	x14,x15,0x10
10000694:	01075713          	srli	x14,x14,0x10
10000698:	fec45783          	lhu	x15,-20(x8)
1000069c:	fdc42683          	lw	x13,-36(x8)
100006a0:	00f687b3          	add	x15,x13,x15
100006a4:	0007c783          	lbu	x15,0(x15)
100006a8:	01079793          	slli	x15,x15,0x10
100006ac:	0107d793          	srli	x15,x15,0x10
100006b0:	00f707b3          	add	x15,x14,x15
100006b4:	01079793          	slli	x15,x15,0x10
100006b8:	0107d793          	srli	x15,x15,0x10
100006bc:	fc978793          	addi	x15,x15,-55
100006c0:	fef41723          	sh	x15,-18(x8)
100006c4:	fec45783          	lhu	x15,-20(x8)
100006c8:	00178793          	addi	x15,x15,1
100006cc:	fef41623          	sh	x15,-20(x8)
100006d0:	fec45703          	lhu	x14,-20(x8)
100006d4:	00300793          	li	x15,3
100006d8:	00e7ec63          	bltu	x15,x14,100006f0 <ascii_hex_to_uint16+0x18c>
100006dc:	fec45783          	lhu	x15,-20(x8)
100006e0:	fdc42703          	lw	x14,-36(x8)
100006e4:	00f707b3          	add	x15,x14,x15
100006e8:	0007c783          	lbu	x15,0(x15)
100006ec:	e8079ae3          	bnez	x15,10000580 <ascii_hex_to_uint16+0x1c>
100006f0:	fee45783          	lhu	x15,-18(x8)
100006f4:	00078513          	mv	x10,x15
100006f8:	02c12403          	lw	x8,44(x2)
100006fc:	03010113          	addi	x2,x2,48
10000700:	00008067          	ret

10000704 <ascii_hex_to_uint32>:
10000704:	fd010113          	addi	x2,x2,-48
10000708:	02812623          	sw	x8,44(x2)
1000070c:	03010413          	addi	x8,x2,48
10000710:	fca42e23          	sw	x10,-36(x8)
10000714:	fe042623          	sw	x0,-20(x8)
10000718:	fe042423          	sw	x0,-24(x8)
1000071c:	10c0006f          	j	10000828 <ascii_hex_to_uint32+0x124>
10000720:	fdc42703          	lw	x14,-36(x8)
10000724:	fe842783          	lw	x15,-24(x8)
10000728:	00f707b3          	add	x15,x14,x15
1000072c:	0007c703          	lbu	x14,0(x15)
10000730:	02f00793          	li	x15,47
10000734:	04e7f063          	bgeu	x15,x14,10000774 <ascii_hex_to_uint32+0x70>
10000738:	fdc42703          	lw	x14,-36(x8)
1000073c:	fe842783          	lw	x15,-24(x8)
10000740:	00f707b3          	add	x15,x14,x15
10000744:	0007c703          	lbu	x14,0(x15)
10000748:	03900793          	li	x15,57
1000074c:	02e7e463          	bltu	x15,x14,10000774 <ascii_hex_to_uint32+0x70>
10000750:	fec42783          	lw	x15,-20(x8)
10000754:	00479793          	slli	x15,x15,0x4
10000758:	fdc42683          	lw	x13,-36(x8)
1000075c:	fe842703          	lw	x14,-24(x8)
10000760:	00e68733          	add	x14,x13,x14
10000764:	00074703          	lbu	x14,0(x14)
10000768:	00e787b3          	add	x15,x15,x14
1000076c:	fd078793          	addi	x15,x15,-48
10000770:	fef42623          	sw	x15,-20(x8)
10000774:	fdc42703          	lw	x14,-36(x8)
10000778:	fe842783          	lw	x15,-24(x8)
1000077c:	00f707b3          	add	x15,x14,x15
10000780:	0007c703          	lbu	x14,0(x15)
10000784:	06000793          	li	x15,96
10000788:	04e7f063          	bgeu	x15,x14,100007c8 <ascii_hex_to_uint32+0xc4>
1000078c:	fdc42703          	lw	x14,-36(x8)
10000790:	fe842783          	lw	x15,-24(x8)
10000794:	00f707b3          	add	x15,x14,x15
10000798:	0007c703          	lbu	x14,0(x15)
1000079c:	06600793          	li	x15,102
100007a0:	02e7e463          	bltu	x15,x14,100007c8 <ascii_hex_to_uint32+0xc4>
100007a4:	fec42783          	lw	x15,-20(x8)
100007a8:	00479793          	slli	x15,x15,0x4
100007ac:	fdc42683          	lw	x13,-36(x8)
100007b0:	fe842703          	lw	x14,-24(x8)
100007b4:	00e68733          	add	x14,x13,x14
100007b8:	00074703          	lbu	x14,0(x14)
100007bc:	00e787b3          	add	x15,x15,x14
100007c0:	fa978793          	addi	x15,x15,-87
100007c4:	fef42623          	sw	x15,-20(x8)
100007c8:	fdc42703          	lw	x14,-36(x8)
100007cc:	fe842783          	lw	x15,-24(x8)
100007d0:	00f707b3          	add	x15,x14,x15
100007d4:	0007c703          	lbu	x14,0(x15)
100007d8:	04000793          	li	x15,64
100007dc:	04e7f063          	bgeu	x15,x14,1000081c <ascii_hex_to_uint32+0x118>
100007e0:	fdc42703          	lw	x14,-36(x8)
100007e4:	fe842783          	lw	x15,-24(x8)
100007e8:	00f707b3          	add	x15,x14,x15
100007ec:	0007c703          	lbu	x14,0(x15)
100007f0:	04600793          	li	x15,70
100007f4:	02e7e463          	bltu	x15,x14,1000081c <ascii_hex_to_uint32+0x118>
100007f8:	fec42783          	lw	x15,-20(x8)
100007fc:	00479793          	slli	x15,x15,0x4
10000800:	fdc42683          	lw	x13,-36(x8)
10000804:	fe842703          	lw	x14,-24(x8)
10000808:	00e68733          	add	x14,x13,x14
1000080c:	00074703          	lbu	x14,0(x14)
10000810:	00e787b3          	add	x15,x15,x14
10000814:	fc978793          	addi	x15,x15,-55
10000818:	fef42623          	sw	x15,-20(x8)
1000081c:	fe842783          	lw	x15,-24(x8)
10000820:	00178793          	addi	x15,x15,1
10000824:	fef42423          	sw	x15,-24(x8)
10000828:	fe842703          	lw	x14,-24(x8)
1000082c:	00700793          	li	x15,7
10000830:	00e7ec63          	bltu	x15,x14,10000848 <ascii_hex_to_uint32+0x144>
10000834:	fdc42703          	lw	x14,-36(x8)
10000838:	fe842783          	lw	x15,-24(x8)
1000083c:	00f707b3          	add	x15,x14,x15
10000840:	0007c783          	lbu	x15,0(x15)
10000844:	ec079ee3          	bnez	x15,10000720 <ascii_hex_to_uint32+0x1c>
10000848:	fec42783          	lw	x15,-20(x8)
1000084c:	00078513          	mv	x10,x15
10000850:	02c12403          	lw	x8,44(x2)
10000854:	03010113          	addi	x2,x2,48
10000858:	00008067          	ret

1000085c <uint8_to_ascii_hex>:
1000085c:	fd010113          	addi	x2,x2,-48
10000860:	02812623          	sw	x8,44(x2)
10000864:	03010413          	addi	x8,x2,48
10000868:	00050793          	mv	x15,x10
1000086c:	fcb42c23          	sw	x11,-40(x8)
10000870:	fcc42a23          	sw	x12,-44(x8)
10000874:	fcf40fa3          	sb	x15,-33(x8)
10000878:	fe042623          	sw	x0,-20(x8)
1000087c:	00200793          	li	x15,2
10000880:	fef42423          	sw	x15,-24(x8)
10000884:	0b00006f          	j	10000934 <uint8_to_ascii_hex+0xd8>
10000888:	fdf44703          	lbu	x14,-33(x8)
1000088c:	fe842683          	lw	x13,-24(x8)
10000890:	fec42783          	lw	x15,-20(x8)
10000894:	40f687b3          	sub	x15,x13,x15
10000898:	fff78793          	addi	x15,x15,-1
1000089c:	00279793          	slli	x15,x15,0x2
100008a0:	40f757b3          	sra	x15,x14,x15
100008a4:	01879793          	slli	x15,x15,0x18
100008a8:	4187d793          	srai	x15,x15,0x18
100008ac:	00f7f793          	andi	x15,x15,15
100008b0:	fef403a3          	sb	x15,-25(x8)
100008b4:	fe740783          	lb	x15,-25(x8)
100008b8:	0207ca63          	bltz	x15,100008ec <uint8_to_ascii_hex+0x90>
100008bc:	fe740703          	lb	x14,-25(x8)
100008c0:	00900793          	li	x15,9
100008c4:	02e7c463          	blt	x15,x14,100008ec <uint8_to_ascii_hex+0x90>
100008c8:	fe744783          	lbu	x15,-25(x8)
100008cc:	03078793          	addi	x15,x15,48
100008d0:	0ff7f693          	andi	x13,x15,255
100008d4:	fd842703          	lw	x14,-40(x8)
100008d8:	fec42783          	lw	x15,-20(x8)
100008dc:	00f707b3          	add	x15,x14,x15
100008e0:	01869713          	slli	x14,x13,0x18
100008e4:	41875713          	srai	x14,x14,0x18
100008e8:	00e78023          	sb	x14,0(x15)
100008ec:	fe740703          	lb	x14,-25(x8)
100008f0:	00900793          	li	x15,9
100008f4:	02e7da63          	bge	x15,x14,10000928 <uint8_to_ascii_hex+0xcc>
100008f8:	fe740703          	lb	x14,-25(x8)
100008fc:	00f00793          	li	x15,15
10000900:	02e7c463          	blt	x15,x14,10000928 <uint8_to_ascii_hex+0xcc>
10000904:	fe744783          	lbu	x15,-25(x8)
10000908:	05778793          	addi	x15,x15,87
1000090c:	0ff7f693          	andi	x13,x15,255
10000910:	fd842703          	lw	x14,-40(x8)
10000914:	fec42783          	lw	x15,-20(x8)
10000918:	00f707b3          	add	x15,x14,x15
1000091c:	01869713          	slli	x14,x13,0x18
10000920:	41875713          	srai	x14,x14,0x18
10000924:	00e78023          	sb	x14,0(x15)
10000928:	fec42783          	lw	x15,-20(x8)
1000092c:	00178793          	addi	x15,x15,1
10000930:	fef42623          	sw	x15,-20(x8)
10000934:	fec42703          	lw	x14,-20(x8)
10000938:	fe842783          	lw	x15,-24(x8)
1000093c:	00f77a63          	bgeu	x14,x15,10000950 <uint8_to_ascii_hex+0xf4>
10000940:	fec42783          	lw	x15,-20(x8)
10000944:	00178793          	addi	x15,x15,1
10000948:	fd442703          	lw	x14,-44(x8)
1000094c:	f2e7eee3          	bltu	x15,x14,10000888 <uint8_to_ascii_hex+0x2c>
10000950:	fd842703          	lw	x14,-40(x8)
10000954:	fec42783          	lw	x15,-20(x8)
10000958:	00f707b3          	add	x15,x14,x15
1000095c:	00078023          	sb	x0,0(x15)
10000960:	fd842783          	lw	x15,-40(x8)
10000964:	00078513          	mv	x10,x15
10000968:	02c12403          	lw	x8,44(x2)
1000096c:	03010113          	addi	x2,x2,48
10000970:	00008067          	ret

10000974 <uint16_to_ascii_hex>:
10000974:	fd010113          	addi	x2,x2,-48
10000978:	02812623          	sw	x8,44(x2)
1000097c:	03010413          	addi	x8,x2,48
10000980:	00050793          	mv	x15,x10
10000984:	fcb42c23          	sw	x11,-40(x8)
10000988:	fcc42a23          	sw	x12,-44(x8)
1000098c:	fcf41f23          	sh	x15,-34(x8)
10000990:	fe042623          	sw	x0,-20(x8)
10000994:	00400793          	li	x15,4
10000998:	fef42423          	sw	x15,-24(x8)
1000099c:	0b00006f          	j	10000a4c <uint16_to_ascii_hex+0xd8>
100009a0:	fde45703          	lhu	x14,-34(x8)
100009a4:	fe842683          	lw	x13,-24(x8)
100009a8:	fec42783          	lw	x15,-20(x8)
100009ac:	40f687b3          	sub	x15,x13,x15
100009b0:	fff78793          	addi	x15,x15,-1
100009b4:	00279793          	slli	x15,x15,0x2
100009b8:	40f757b3          	sra	x15,x14,x15
100009bc:	01879793          	slli	x15,x15,0x18
100009c0:	4187d793          	srai	x15,x15,0x18
100009c4:	00f7f793          	andi	x15,x15,15
100009c8:	fef403a3          	sb	x15,-25(x8)
100009cc:	fe740783          	lb	x15,-25(x8)
100009d0:	0207ca63          	bltz	x15,10000a04 <uint16_to_ascii_hex+0x90>
100009d4:	fe740703          	lb	x14,-25(x8)
100009d8:	00900793          	li	x15,9
100009dc:	02e7c463          	blt	x15,x14,10000a04 <uint16_to_ascii_hex+0x90>
100009e0:	fe744783          	lbu	x15,-25(x8)
100009e4:	03078793          	addi	x15,x15,48
100009e8:	0ff7f693          	andi	x13,x15,255
100009ec:	fd842703          	lw	x14,-40(x8)
100009f0:	fec42783          	lw	x15,-20(x8)
100009f4:	00f707b3          	add	x15,x14,x15
100009f8:	01869713          	slli	x14,x13,0x18
100009fc:	41875713          	srai	x14,x14,0x18
10000a00:	00e78023          	sb	x14,0(x15)
10000a04:	fe740703          	lb	x14,-25(x8)
10000a08:	00900793          	li	x15,9
10000a0c:	02e7da63          	bge	x15,x14,10000a40 <uint16_to_ascii_hex+0xcc>
10000a10:	fe740703          	lb	x14,-25(x8)
10000a14:	00f00793          	li	x15,15
10000a18:	02e7c463          	blt	x15,x14,10000a40 <uint16_to_ascii_hex+0xcc>
10000a1c:	fe744783          	lbu	x15,-25(x8)
10000a20:	05778793          	addi	x15,x15,87
10000a24:	0ff7f693          	andi	x13,x15,255
10000a28:	fd842703          	lw	x14,-40(x8)
10000a2c:	fec42783          	lw	x15,-20(x8)
10000a30:	00f707b3          	add	x15,x14,x15
10000a34:	01869713          	slli	x14,x13,0x18
10000a38:	41875713          	srai	x14,x14,0x18
10000a3c:	00e78023          	sb	x14,0(x15)
10000a40:	fec42783          	lw	x15,-20(x8)
10000a44:	00178793          	addi	x15,x15,1
10000a48:	fef42623          	sw	x15,-20(x8)
10000a4c:	fec42703          	lw	x14,-20(x8)
10000a50:	fe842783          	lw	x15,-24(x8)
10000a54:	00f77a63          	bgeu	x14,x15,10000a68 <uint16_to_ascii_hex+0xf4>
10000a58:	fec42783          	lw	x15,-20(x8)
10000a5c:	00178793          	addi	x15,x15,1
10000a60:	fd442703          	lw	x14,-44(x8)
10000a64:	f2e7eee3          	bltu	x15,x14,100009a0 <uint16_to_ascii_hex+0x2c>
10000a68:	fd842703          	lw	x14,-40(x8)
10000a6c:	fec42783          	lw	x15,-20(x8)
10000a70:	00f707b3          	add	x15,x14,x15
10000a74:	00078023          	sb	x0,0(x15)
10000a78:	fd842783          	lw	x15,-40(x8)
10000a7c:	00078513          	mv	x10,x15
10000a80:	02c12403          	lw	x8,44(x2)
10000a84:	03010113          	addi	x2,x2,48
10000a88:	00008067          	ret

10000a8c <uint32_to_ascii_hex>:
10000a8c:	fd010113          	addi	x2,x2,-48
10000a90:	02812623          	sw	x8,44(x2)
10000a94:	03010413          	addi	x8,x2,48
10000a98:	fca42e23          	sw	x10,-36(x8)
10000a9c:	fcb42c23          	sw	x11,-40(x8)
10000aa0:	fcc42a23          	sw	x12,-44(x8)
10000aa4:	fe042623          	sw	x0,-20(x8)
10000aa8:	00800793          	li	x15,8
10000aac:	fef42423          	sw	x15,-24(x8)
10000ab0:	0b00006f          	j	10000b60 <uint32_to_ascii_hex+0xd4>
10000ab4:	fe842703          	lw	x14,-24(x8)
10000ab8:	fec42783          	lw	x15,-20(x8)
10000abc:	40f707b3          	sub	x15,x14,x15
10000ac0:	fff78793          	addi	x15,x15,-1
10000ac4:	00279793          	slli	x15,x15,0x2
10000ac8:	fdc42703          	lw	x14,-36(x8)
10000acc:	00f757b3          	srl	x15,x14,x15
10000ad0:	01879793          	slli	x15,x15,0x18
10000ad4:	4187d793          	srai	x15,x15,0x18
10000ad8:	00f7f793          	andi	x15,x15,15
10000adc:	fef403a3          	sb	x15,-25(x8)
10000ae0:	fe740783          	lb	x15,-25(x8)
10000ae4:	0207ca63          	bltz	x15,10000b18 <uint32_to_ascii_hex+0x8c>
10000ae8:	fe740703          	lb	x14,-25(x8)
10000aec:	00900793          	li	x15,9
10000af0:	02e7c463          	blt	x15,x14,10000b18 <uint32_to_ascii_hex+0x8c>
10000af4:	fe744783          	lbu	x15,-25(x8)
10000af8:	03078793          	addi	x15,x15,48
10000afc:	0ff7f693          	andi	x13,x15,255
10000b00:	fd842703          	lw	x14,-40(x8)
10000b04:	fec42783          	lw	x15,-20(x8)
10000b08:	00f707b3          	add	x15,x14,x15
10000b0c:	01869713          	slli	x14,x13,0x18
10000b10:	41875713          	srai	x14,x14,0x18
10000b14:	00e78023          	sb	x14,0(x15)
10000b18:	fe740703          	lb	x14,-25(x8)
10000b1c:	00900793          	li	x15,9
10000b20:	02e7da63          	bge	x15,x14,10000b54 <uint32_to_ascii_hex+0xc8>
10000b24:	fe740703          	lb	x14,-25(x8)
10000b28:	00f00793          	li	x15,15
10000b2c:	02e7c463          	blt	x15,x14,10000b54 <uint32_to_ascii_hex+0xc8>
10000b30:	fe744783          	lbu	x15,-25(x8)
10000b34:	05778793          	addi	x15,x15,87
10000b38:	0ff7f693          	andi	x13,x15,255
10000b3c:	fd842703          	lw	x14,-40(x8)
10000b40:	fec42783          	lw	x15,-20(x8)
10000b44:	00f707b3          	add	x15,x14,x15
10000b48:	01869713          	slli	x14,x13,0x18
10000b4c:	41875713          	srai	x14,x14,0x18
10000b50:	00e78023          	sb	x14,0(x15)
10000b54:	fec42783          	lw	x15,-20(x8)
10000b58:	00178793          	addi	x15,x15,1
10000b5c:	fef42623          	sw	x15,-20(x8)
10000b60:	fec42703          	lw	x14,-20(x8)
10000b64:	fe842783          	lw	x15,-24(x8)
10000b68:	00f77a63          	bgeu	x14,x15,10000b7c <uint32_to_ascii_hex+0xf0>
10000b6c:	fec42783          	lw	x15,-20(x8)
10000b70:	00178793          	addi	x15,x15,1
10000b74:	fd442703          	lw	x14,-44(x8)
10000b78:	f2e7eee3          	bltu	x15,x14,10000ab4 <uint32_to_ascii_hex+0x28>
10000b7c:	fd842703          	lw	x14,-40(x8)
10000b80:	fec42783          	lw	x15,-20(x8)
10000b84:	00f707b3          	add	x15,x14,x15
10000b88:	00078023          	sb	x0,0(x15)
10000b8c:	fd842783          	lw	x15,-40(x8)
10000b90:	00078513          	mv	x10,x15
10000b94:	02c12403          	lw	x8,44(x2)
10000b98:	03010113          	addi	x2,x2,48
10000b9c:	00008067          	ret

10000ba0 <uwrite_int8>:
10000ba0:	fe010113          	addi	x2,x2,-32
10000ba4:	00812e23          	sw	x8,28(x2)
10000ba8:	02010413          	addi	x8,x2,32
10000bac:	00050793          	mv	x15,x10
10000bb0:	fef407a3          	sb	x15,-17(x8)
10000bb4:	00000013          	nop
10000bb8:	800007b7          	lui	x15,0x80000
10000bbc:	0007a783          	lw	x15,0(x15) # 80000000 <strlen+0x6ffff278>
10000bc0:	0017f793          	andi	x15,x15,1
10000bc4:	fe078ae3          	beqz	x15,10000bb8 <uwrite_int8+0x18>
10000bc8:	800007b7          	lui	x15,0x80000
10000bcc:	00878793          	addi	x15,x15,8 # 80000008 <strlen+0x6ffff280>
10000bd0:	fef40703          	lb	x14,-17(x8)
10000bd4:	00e7a023          	sw	x14,0(x15)
10000bd8:	00000013          	nop
10000bdc:	01c12403          	lw	x8,28(x2)
10000be0:	02010113          	addi	x2,x2,32
10000be4:	00008067          	ret

10000be8 <uwrite_int8s>:
10000be8:	fd010113          	addi	x2,x2,-48
10000bec:	02112623          	sw	x1,44(x2)
10000bf0:	02812423          	sw	x8,40(x2)
10000bf4:	03010413          	addi	x8,x2,48
10000bf8:	fca42e23          	sw	x10,-36(x8)
10000bfc:	fe042623          	sw	x0,-20(x8)
10000c00:	0280006f          	j	10000c28 <uwrite_int8s+0x40>
10000c04:	fec42783          	lw	x15,-20(x8)
10000c08:	fdc42703          	lw	x14,-36(x8)
10000c0c:	00f707b3          	add	x15,x14,x15
10000c10:	00078783          	lb	x15,0(x15)
10000c14:	00078513          	mv	x10,x15
10000c18:	f89ff0ef          	jal	x1,10000ba0 <uwrite_int8>
10000c1c:	fec42783          	lw	x15,-20(x8)
10000c20:	00178793          	addi	x15,x15,1
10000c24:	fef42623          	sw	x15,-20(x8)
10000c28:	fec42783          	lw	x15,-20(x8)
10000c2c:	fdc42703          	lw	x14,-36(x8)
10000c30:	00f707b3          	add	x15,x14,x15
10000c34:	00078783          	lb	x15,0(x15)
10000c38:	fc0796e3          	bnez	x15,10000c04 <uwrite_int8s+0x1c>
10000c3c:	00000013          	nop
10000c40:	02c12083          	lw	x1,44(x2)
10000c44:	02812403          	lw	x8,40(x2)
10000c48:	03010113          	addi	x2,x2,48
10000c4c:	00008067          	ret

10000c50 <uread_int8>:
10000c50:	fe010113          	addi	x2,x2,-32
10000c54:	00112e23          	sw	x1,28(x2)
10000c58:	00812c23          	sw	x8,24(x2)
10000c5c:	02010413          	addi	x8,x2,32
10000c60:	00000013          	nop
10000c64:	800007b7          	lui	x15,0x80000
10000c68:	0007a783          	lw	x15,0(x15) # 80000000 <strlen+0x6ffff278>
10000c6c:	0027f793          	andi	x15,x15,2
10000c70:	fe078ae3          	beqz	x15,10000c64 <uread_int8+0x14>
10000c74:	800007b7          	lui	x15,0x80000
10000c78:	00478793          	addi	x15,x15,4 # 80000004 <strlen+0x6ffff27c>
10000c7c:	0007a783          	lw	x15,0(x15)
10000c80:	fef407a3          	sb	x15,-17(x8)
10000c84:	fef40703          	lb	x14,-17(x8)
10000c88:	00d00793          	li	x15,13
10000c8c:	00f71a63          	bne	x14,x15,10000ca0 <uread_int8+0x50>
10000c90:	00000517          	auipc	x10,0x0
10000c94:	16050513          	addi	x10,x10,352 # 10000df0 <strlen+0x68>
10000c98:	f51ff0ef          	jal	x1,10000be8 <uwrite_int8s>
10000c9c:	0100006f          	j	10000cac <uread_int8+0x5c>
10000ca0:	fef40783          	lb	x15,-17(x8)
10000ca4:	00078513          	mv	x10,x15
10000ca8:	ef9ff0ef          	jal	x1,10000ba0 <uwrite_int8>
10000cac:	fef40783          	lb	x15,-17(x8)
10000cb0:	00078513          	mv	x10,x15
10000cb4:	01c12083          	lw	x1,28(x2)
10000cb8:	01812403          	lw	x8,24(x2)
10000cbc:	02010113          	addi	x2,x2,32
10000cc0:	00008067          	ret

10000cc4 <uread_int8_noecho>:
10000cc4:	fe010113          	addi	x2,x2,-32
10000cc8:	00812e23          	sw	x8,28(x2)
10000ccc:	02010413          	addi	x8,x2,32
10000cd0:	00000013          	nop
10000cd4:	800007b7          	lui	x15,0x80000
10000cd8:	0007a783          	lw	x15,0(x15) # 80000000 <strlen+0x6ffff278>
10000cdc:	0027f793          	andi	x15,x15,2
10000ce0:	fe078ae3          	beqz	x15,10000cd4 <uread_int8_noecho+0x10>
10000ce4:	800007b7          	lui	x15,0x80000
10000ce8:	00478793          	addi	x15,x15,4 # 80000004 <strlen+0x6ffff27c>
10000cec:	0007a783          	lw	x15,0(x15)
10000cf0:	fef407a3          	sb	x15,-17(x8)
10000cf4:	fef40783          	lb	x15,-17(x8)
10000cf8:	00078513          	mv	x10,x15
10000cfc:	01c12403          	lw	x8,28(x2)
10000d00:	02010113          	addi	x2,x2,32
10000d04:	00008067          	ret

10000d08 <strcmp>:
10000d08:	fd010113          	addi	x2,x2,-48
10000d0c:	02812623          	sw	x8,44(x2)
10000d10:	03010413          	addi	x8,x2,48
10000d14:	fca42e23          	sw	x10,-36(x8)
10000d18:	fcb42c23          	sw	x11,-40(x8)
10000d1c:	fe042623          	sw	x0,-20(x8)
10000d20:	fdc42703          	lw	x14,-36(x8)
10000d24:	fec42783          	lw	x15,-20(x8)
10000d28:	00f707b3          	add	x15,x14,x15
10000d2c:	00078703          	lb	x14,0(x15)
10000d30:	fd842683          	lw	x13,-40(x8)
10000d34:	fec42783          	lw	x15,-20(x8)
10000d38:	00f687b3          	add	x15,x13,x15
10000d3c:	00078783          	lb	x15,0(x15)
10000d40:	00f70663          	beq	x14,x15,10000d4c <strcmp+0x44>
10000d44:	00100793          	li	x15,1
10000d48:	0300006f          	j	10000d78 <strcmp+0x70>
10000d4c:	fdc42703          	lw	x14,-36(x8)
10000d50:	fec42783          	lw	x15,-20(x8)
10000d54:	00f707b3          	add	x15,x14,x15
10000d58:	00078783          	lb	x15,0(x15)
10000d5c:	00078a63          	beqz	x15,10000d70 <strcmp+0x68>
10000d60:	fec42783          	lw	x15,-20(x8)
10000d64:	00178793          	addi	x15,x15,1
10000d68:	fef42623          	sw	x15,-20(x8)
10000d6c:	fb5ff06f          	j	10000d20 <strcmp+0x18>
10000d70:	00000013          	nop
10000d74:	00000793          	li	x15,0
10000d78:	00078513          	mv	x10,x15
10000d7c:	02c12403          	lw	x8,44(x2)
10000d80:	03010113          	addi	x2,x2,48
10000d84:	00008067          	ret

10000d88 <strlen>:
10000d88:	fd010113          	addi	x2,x2,-48
10000d8c:	02812623          	sw	x8,44(x2)
10000d90:	03010413          	addi	x8,x2,48
10000d94:	fca42e23          	sw	x10,-36(x8)
10000d98:	fe042623          	sw	x0,-20(x8)
10000d9c:	0100006f          	j	10000dac <strlen+0x24>
10000da0:	fec42783          	lw	x15,-20(x8)
10000da4:	00178793          	addi	x15,x15,1
10000da8:	fef42623          	sw	x15,-20(x8)
10000dac:	fdc42703          	lw	x14,-36(x8)
10000db0:	fec42783          	lw	x15,-20(x8)
10000db4:	00f707b3          	add	x15,x14,x15
10000db8:	00078783          	lb	x15,0(x15)
10000dbc:	fe0792e3          	bnez	x15,10000da0 <strlen+0x18>
10000dc0:	fec42783          	lw	x15,-20(x8)
10000dc4:	00078513          	mv	x10,x15
10000dc8:	02c12403          	lw	x8,44(x2)
10000dcc:	03010113          	addi	x2,x2,48
10000dd0:	00008067          	ret

Disassembly of section .rodata:

10000dd4 <.rodata>:
10000dd4:	464e495b          	0x464e495b
10000dd8:	454c5d4f          	0x454c5d4f
10000ddc:	2044                	fld	f9,128(x8)
10000dde:	4554                	lw	x13,12(x10)
10000de0:	50205453          	0x50205453
10000de4:	4f52                	lw	x30,20(x2)
10000de6:	4d415247          	0x4d415247
10000dea:	565f 0a31 0000      	0xa31565f
10000df0:	0a0d                	addi	x20,x20,3
	...

Disassembly of section .comment:

00000000 <.comment>:
   0:	3a434347          	fmsub.d	f6,f6,f4,f7,rmm
   4:	2820                	fld	f8,80(x8)
   6:	69466953          	0x69466953
   a:	6576                	flw	f10,92(x2)
   c:	4720                	lw	x8,72(x14)
   e:	38204343          	fmadd.s	f6,f0,f2,f7,rmm
  12:	322e                	fld	f4,232(x2)
  14:	302e                	fld	f0,232(x2)
  16:	322d                	jal	fffff940 <strlen+0xefffebb8>
  18:	3130                	fld	f12,96(x10)
  1a:	2e39                	jal	338 <_start-0xffffcc8>
  1c:	3530                	fld	f12,104(x10)
  1e:	332e                	fld	f6,232(x2)
  20:	2029                	jal	2a <_start-0xfffffd6>
  22:	2e38                	fld	f14,88(x12)
  24:	2e32                	fld	f28,264(x2)
  26:	0030                	addi	x12,x2,8

Disassembly of section .riscv.attributes:

00000000 <.riscv.attributes>:
   0:	1941                	addi	x18,x18,-16
   2:	0000                	unimp
   4:	7200                	flw	f8,32(x12)
   6:	7369                	lui	x6,0xffffa
   8:	01007663          	bgeu	x0,x16,14 <_start-0xfffffec>
   c:	0000000f          	fence	unknown,unknown
  10:	7205                	lui	x4,0xfffe1
  12:	3376                	fld	f6,376(x2)
  14:	6932                	flw	f18,12(x2)
  16:	7032                	flw	f0,44(x2)
  18:	0030                	addi	x12,x2,8
